; ModuleID = 'source-C-CXX/60/567.c'
source_filename = "source-C-CXX/60/567.c"
target datalayout = "e-m:e-p270:32:32-p271:32:32-p272:64:64-i64:64-f80:128-n8:16:32:64-S128"
target triple = "x86_64-pc-linux-gnu"

@.str = private unnamed_addr constant [3 x i8] c"%d\00", align 1
@.str.1 = private unnamed_addr constant [4 x i8] c"%d\0A\00", align 1

; Function Attrs: nofree nounwind sspstrong uwtable
define dso_local i32 @main() local_unnamed_addr #0 {
  %1 = alloca i32, align 4
  %2 = alloca [100000 x i32], align 16
  %3 = alloca [100000 x i32], align 16
  %4 = bitcast i32* %1 to i8*
  call void @llvm.lifetime.start.p0i8(i64 4, i8* nonnull %4) #3
  %5 = bitcast [100000 x i32]* %2 to i8*
  call void @llvm.lifetime.start.p0i8(i64 400000, i8* nonnull %5) #3
  %6 = bitcast [100000 x i32]* %3 to i8*
  call void @llvm.lifetime.start.p0i8(i64 400000, i8* nonnull %6) #3
  %7 = call i32 (i8*, ...) @__isoc99_scanf(i8* getelementptr inbounds ([3 x i8], [3 x i8]* @.str, i64 0, i64 0), i32* nonnull %1)
  %8 = getelementptr inbounds [100000 x i32], [100000 x i32]* %3, i64 0, i64 2
  %9 = getelementptr inbounds [100000 x i32], [100000 x i32]* %3, i64 0, i64 1
  store i32 1, i32* %9, align 4, !tbaa !5
  store i32 1, i32* %8, align 8, !tbaa !5
  br label %13

10:                                               ; preds = %28
  %11 = load i32, i32* %1, align 4, !tbaa !5
  %12 = icmp sgt i32 %11, 0
  br i1 %12, label %33, label %53

13:                                               ; preds = %0, %28
  %14 = phi i64 [ 3, %0 ], [ %29, %28 ]
  %15 = trunc i64 %14 to i32
  switch i32 %15, label %18 [
    i32 1, label %16
    i32 2, label %17
  ]

16:                                               ; preds = %13
  store i32 1, i32* %9, align 4, !tbaa !5
  br label %28

17:                                               ; preds = %13
  store i32 1, i32* %8, align 8, !tbaa !5
  br label %28

18:                                               ; preds = %13
  %19 = add nuw i64 %14, 4294967294
  %20 = and i64 %19, 4294967295
  %21 = getelementptr inbounds [100000 x i32], [100000 x i32]* %3, i64 0, i64 %20
  %22 = load i32, i32* %21, align 4, !tbaa !5
  %23 = add nsw i64 %14, -1
  %24 = getelementptr inbounds [100000 x i32], [100000 x i32]* %3, i64 0, i64 %23
  %25 = load i32, i32* %24, align 4, !tbaa !5
  %26 = add nsw i32 %25, %22
  %27 = getelementptr inbounds [100000 x i32], [100000 x i32]* %3, i64 0, i64 %14
  store i32 %26, i32* %27, align 4, !tbaa !5
  br label %28

28:                                               ; preds = %17, %16, %18
  %29 = add nuw nsw i64 %14, 1
  %30 = icmp eq i64 %29, 100000
  br i1 %30, label %10, label %13, !llvm.loop !9

31:                                               ; preds = %33
  %32 = icmp sgt i32 %38, 0
  br i1 %32, label %41, label %53

33:                                               ; preds = %10, %33
  %34 = phi i64 [ %37, %33 ], [ 0, %10 ]
  %35 = getelementptr inbounds [100000 x i32], [100000 x i32]* %2, i64 0, i64 %34
  %36 = call i32 (i8*, ...) @__isoc99_scanf(i8* getelementptr inbounds ([3 x i8], [3 x i8]* @.str, i64 0, i64 0), i32* nonnull %35)
  %37 = add nuw nsw i64 %34, 1
  %38 = load i32, i32* %1, align 4, !tbaa !5
  %39 = sext i32 %38 to i64
  %40 = icmp slt i64 %37, %39
  br i1 %40, label %33, label %31, !llvm.loop !12

41:                                               ; preds = %31, %41
  %42 = phi i64 [ %49, %41 ], [ 0, %31 ]
  %43 = getelementptr inbounds [100000 x i32], [100000 x i32]* %2, i64 0, i64 %42
  %44 = load i32, i32* %43, align 4, !tbaa !5
  %45 = sext i32 %44 to i64
  %46 = getelementptr inbounds [100000 x i32], [100000 x i32]* %3, i64 0, i64 %45
  %47 = load i32, i32* %46, align 4, !tbaa !5
  %48 = call i32 (i8*, ...) @printf(i8* nonnull dereferenceable(1) getelementptr inbounds ([4 x i8], [4 x i8]* @.str.1, i64 0, i64 0), i32 %47)
  %49 = add nuw nsw i64 %42, 1
  %50 = load i32, i32* %1, align 4, !tbaa !5
  %51 = sext i32 %50 to i64
  %52 = icmp slt i64 %49, %51
  br i1 %52, label %41, label %53, !llvm.loop !13

53:                                               ; preds = %41, %10, %31
  call void @llvm.lifetime.end.p0i8(i64 400000, i8* nonnull %6) #3
  call void @llvm.lifetime.end.p0i8(i64 400000, i8* nonnull %5) #3
  call void @llvm.lifetime.end.p0i8(i64 4, i8* nonnull %4) #3
  ret i32 0
}

; Function Attrs: argmemonly mustprogress nofree nosync nounwind willreturn
declare void @llvm.lifetime.start.p0i8(i64 immarg, i8* nocapture) #1

; Function Attrs: nofree nounwind
declare noundef i32 @__isoc99_scanf(i8* nocapture noundef readonly, ...) local_unnamed_addr #2

; Function Attrs: nofree nounwind
declare noundef i32 @printf(i8* nocapture noundef readonly, ...) local_unnamed_addr #2

; Function Attrs: argmemonly mustprogress nofree nosync nounwind willreturn
declare void @llvm.lifetime.end.p0i8(i64 immarg, i8* nocapture) #1


!llvm.module.flags = !{!0, !1, !2, !3}
!llvm.ident = !{!4}

!0 = !{i32 1, !"wchar_size", i32 4}
!1 = !{i32 7, !"PIC Level", i32 2}
!2 = !{i32 7, !"PIE Level", i32 2}
!3 = !{i32 7, !"uwtable", i32 1}
!4 = !{!"clang version 13.0.0"}
!5 = !{!6, !6, i64 0}
!6 = !{!"int", !7, i64 0}
!7 = !{!"omnipotent char", !8, i64 0}
!8 = !{!"Simple C/C++ TBAA"}
!9 = distinct !{!9, !10, !11}
!10 = !{!"llvm.loop.mustprogress"}
!11 = !{!"llvm.loop.peeled.count", i32 2}
!12 = distinct !{!12, !10}
!13 = distinct !{!13, !10}
